; Function Attrs: mustprogress uwtable
define void @_ZN3net18QuicFlowController23UpdateReceiveWindowSizeEm(ptr noundef nonnull align 8 captures(none) dereferenceable(96) %0, i64 noundef %1) local_unnamed_addr #1 align 2 personality ptr @__gxx_personality_v0 {
  %3 = alloca %"class.logging::LogMessage", align 8
  %4 = getelementptr inbounds nuw i8, ptr %0, i64 56
  %5 = load i64, ptr %4, align 8, !tbaa !19
  %6 = getelementptr inbounds nuw i8, ptr %0, i64 48
  %7 = load i64, ptr %6, align 8, !tbaa !18
  %.not = icmp eq i64 %5, %7
  br i1 %.not, label %20, label %8

8:                                                ; preds = %2
  %9 = tail call noundef zeroext i1 @_ZN7logging22ShouldCreateLogMessageEi(i32 noundef 2)
  br i1 %9, label %10, label %.critedge9

10:                                               ; preds = %8
  call void @llvm.lifetime.start.p0(i64 408, ptr nonnull %3) #14
  call void @_ZN7logging10LogMessageC1EPKcii(ptr noundef nonnull align 8 dereferenceable(404) %3, ptr noundef nonnull @.str, i32 noundef 246, i32 noundef 2)
  %11 = getelementptr inbounds nuw i8, ptr %3, i64 8
  %12 = invoke noundef nonnull align 8 dereferenceable(8) ptr @_ZSt16__ostream_insertIcSt11char_traitsIcEERSt13basic_ostreamIT_T0_ES6_PKS3_l(ptr noundef nonnull align 8 dereferenceable(8) %11, ptr noundef nonnull @.str.8, i64 noundef 21)
          to label %_ZStlsISt11char_traitsIcEERSt13basic_ostreamIcT_ES5_PKc.exit unwind label %18

_ZStlsISt11char_traitsIcEERSt13basic_ostreamIcT_ES5_PKc.exit: ; preds = %10
  %13 = load i64, ptr %4, align 8, !tbaa !19
  %14 = invoke noundef nonnull align 8 dereferenceable(8) ptr @_ZNSo9_M_insertImEERSoT_(ptr noundef nonnull align 8 dereferenceable(8) %11, i64 noundef %13)
          to label %_ZNSolsEm.exit unwind label %18

_ZNSolsEm.exit:                                   ; preds = %_ZStlsISt11char_traitsIcEERSt13basic_ostreamIcT_ES5_PKc.exit
  %15 = invoke noundef nonnull align 8 dereferenceable(8) ptr @_ZSt16__ostream_insertIcSt11char_traitsIcEERSt13basic_ostreamIT_T0_ES6_PKS3_l(ptr noundef nonnull align 8 dereferenceable(8) %14, ptr noundef nonnull @.str.9, i64 noundef 26)
          to label %_ZStlsISt11char_traitsIcEERSt13basic_ostreamIcT_ES5_PKc.exit10 unwind label %18

_ZStlsISt11char_traitsIcEERSt13basic_ostreamIcT_ES5_PKc.exit10: ; preds = %_ZNSolsEm.exit
  %16 = load i64, ptr %6, align 8, !tbaa !18
  %17 = invoke noundef nonnull align 8 dereferenceable(8) ptr @_ZNSo9_M_insertImEERSoT_(ptr noundef nonnull align 8 dereferenceable(8) %14, i64 noundef %16)
          to label %.critedge unwind label %18

.critedge:                                        ; preds = %_ZStlsISt11char_traitsIcEERSt13basic_ostreamIcT_ES5_PKc.exit10
  call void @_ZN7logging10LogMessageD1Ev(ptr noundef nonnull align 8 dereferenceable(404) %3) #14
  call void @llvm.lifetime.end.p0(i64 408, ptr nonnull %3) #14
  br label %.critedge9

18:                                               ; preds = %_ZStlsISt11char_traitsIcEERSt13basic_ostreamIcT_ES5_PKc.exit10, %_ZNSolsEm.exit, %_ZStlsISt11char_traitsIcEERSt13basic_ostreamIcT_ES5_PKc.exit, %10
  %19 = landingpad { ptr, i32 }
          cleanup
  call void @_ZN7logging10LogMessageD1Ev(ptr noundef nonnull align 8 dereferenceable(404) %3) #14
  call void @llvm.lifetime.end.p0(i64 408, ptr nonnull %3) #14
  resume { ptr, i32 } %19

20:                                               ; preds = %2
  store i64 %1, ptr %4, align 8, !tbaa !19
  store i64 %1, ptr %6, align 8, !tbaa !18
  br label %.critedge9

.critedge9:                                       ; preds = %.critedge, %8, %20
  ret void
}